target datalayout = "e-m:e-p270:32:32-p271:32:32-p272:64:64-i64:64-i128:128-f80:128-n8:16:32:64-S128"
target triple = "x86_64-pc-linux-gnu"

%struct.Abc_Frame_t_ = type { ptr, ptr, ptr, ptr, ptr, ptr, ptr, ptr, ptr, ptr, i32, i32, i32, i32, i32, ptr, float, float, i32, i32, ptr, ptr, ptr, double, double, ptr, ptr, ptr, ptr, ptr, ptr, ptr, ptr, ptr, ptr, ptr, ptr, float, ptr, i32, ptr, ptr, ptr, ptr, ptr, i32, i32, i32, i32, i32, i32, ptr, ptr, ptr, ptr, ptr, ptr, i32, i32, ptr, ptr, ptr, ptr, ptr, ptr, ptr, ptr, ptr, ptr, ptr, ptr, ptr, ptr, ptr, ptr, ptr, ptr, ptr, ptr, ptr, ptr, ptr, ptr, ptr, ptr, ptr, ptr, ptr, ptr }

@.str.31 = private unnamed_addr constant [4 x i8] c"yes\00", align 1
@.str.32 = private unnamed_addr constant [3 x i8] c"no\00", align 1
@.str.34 = private unnamed_addr constant [62 x i8] c"\09-v     : toggle printing verbose information [default = %s]\0A\00", align 1
@.str.35 = private unnamed_addr constant [35 x i8] c"\09-h     : print the command usage\0A\00", align 1
@.str.72 = private unnamed_addr constant [47 x i8] c"Bac_CommandGet(): There is no current design.\0A\00", align 1
@.str.78 = private unnamed_addr constant [3 x i8] c"vh\00", align 1
@.str.79 = private unnamed_addr constant [20 x i8] c"usage: @_clp [-vh]\0A\00", align 1
@.str.80 = private unnamed_addr constant [53 x i8] c"\09         collapses the current hierarchical design\0A\00", align 1

; Function Attrs: inlinehint nounwind uwtable
define internal void @Bac_AbcFreeMan(ptr noundef %0) #3 {
  %2 = alloca ptr, align 8
  store ptr %0, ptr %2, align 8, !tbaa !10
  %3 = load ptr, ptr %2, align 8, !tbaa !10
  %4 = getelementptr inbounds nuw %struct.Abc_Frame_t_, ptr %3, i32 0, i32 74
  %5 = load ptr, ptr %4, align 8, !tbaa !12
  %6 = icmp ne ptr %5, null
  br i1 %6, label %7, label %10

7:                                                ; preds = %1
  %8 = load ptr, ptr %2, align 8, !tbaa !10
  %9 = call ptr @Bac_AbcGetMan(ptr noundef %8)
  call void @Bac_ManFree(ptr noundef %9)
  br label %10

10:                                               ; preds = %7, %1
  ret void
}

; Function Attrs: inlinehint nounwind uwtable
define internal void @Bac_AbcUpdateMan(ptr noundef %0, ptr noundef %1) #3 {
  %3 = alloca ptr, align 8
  %4 = alloca ptr, align 8
  store ptr %0, ptr %3, align 8, !tbaa !10
  store ptr %1, ptr %4, align 8, !tbaa !8
  %5 = load ptr, ptr %3, align 8, !tbaa !10
  call void @Bac_AbcFreeMan(ptr noundef %5)
  %6 = load ptr, ptr %4, align 8, !tbaa !8
  %7 = load ptr, ptr %3, align 8, !tbaa !10
  %8 = getelementptr inbounds nuw %struct.Abc_Frame_t_, ptr %7, i32 0, i32 74
  store ptr %6, ptr %8, align 8, !tbaa !12
  ret void
}

; Function Attrs: inlinehint nounwind uwtable
define internal ptr @Bac_AbcGetMan(ptr noundef %0) #3 {
  %2 = alloca ptr, align 8
  store ptr %0, ptr %2, align 8, !tbaa !10
  %3 = load ptr, ptr %2, align 8, !tbaa !10
  %4 = getelementptr inbounds nuw %struct.Abc_Frame_t_, ptr %3, i32 0, i32 74
  %5 = load ptr, ptr %4, align 8, !tbaa !12
  ret ptr %5
}

; Function Attrs: nounwind uwtable
define internal i32 @Bac_CommandClp(ptr noundef %0, i32 noundef %1, ptr noundef %2) #0 {
  %4 = alloca i32, align 4
  %5 = alloca ptr, align 8
  %6 = alloca i32, align 4
  %7 = alloca ptr, align 8
  %8 = alloca ptr, align 8
  %9 = alloca ptr, align 8
  %10 = alloca i32, align 4
  %11 = alloca i32, align 4
  %12 = alloca i32, align 4
  store ptr %0, ptr %5, align 8, !tbaa !10
  store i32 %1, ptr %6, align 4, !tbaa !28
  store ptr %2, ptr %7, align 8, !tbaa !29
  call void @llvm.lifetime.start.p0(i64 8, ptr %8) #10
  store ptr null, ptr %8, align 8, !tbaa !8
  call void @llvm.lifetime.start.p0(i64 8, ptr %9) #10
  %13 = load ptr, ptr %5, align 8, !tbaa !10
  %14 = call ptr @Bac_AbcGetMan(ptr noundef %13)
  store ptr %14, ptr %9, align 8, !tbaa !8
  call void @llvm.lifetime.start.p0(i64 4, ptr %10) #10
  call void @llvm.lifetime.start.p0(i64 4, ptr %11) #10
  store i32 0, ptr %11, align 4, !tbaa !28
  call void (...) @Extra_UtilGetoptReset()
  br label %15

15:                                               ; preds = %27, %3
  %16 = load i32, ptr %6, align 4, !tbaa !28
  %17 = load ptr, ptr %7, align 8, !tbaa !29
  %18 = call i32 @Extra_UtilGetopt(i32 noundef %16, ptr noundef %17, ptr noundef @.str.78)
  store i32 %18, ptr %10, align 4, !tbaa !28
  %19 = icmp ne i32 %18, -1
  br i1 %19, label %20, label %28

20:                                               ; preds = %15
  %21 = load i32, ptr %10, align 4, !tbaa !28
  switch i32 %21, label %26 [
    i32 118, label %22
    i32 104, label %25
  ]

22:                                               ; preds = %20
  %23 = load i32, ptr %11, align 4, !tbaa !28
  %24 = xor i32 %23, 1
  store i32 %24, ptr %11, align 4, !tbaa !28
  br label %27

25:                                               ; preds = %20
  br label %37

26:                                               ; preds = %20
  br label %37

27:                                               ; preds = %22
  br label %15, !llvm.loop !56

28:                                               ; preds = %15
  %29 = load ptr, ptr %9, align 8, !tbaa !8
  %30 = icmp eq ptr %29, null
  br i1 %30, label %31, label %32

31:                                               ; preds = %28
  call void (i32, ptr, ...) @Abc_Print(i32 noundef 1, ptr noundef @.str.72)
  store i32 0, ptr %4, align 4
  store i32 1, ptr %12, align 4
  br label %41

32:                                               ; preds = %28
  %33 = load ptr, ptr %9, align 8, !tbaa !8
  %34 = call ptr @Bac_ManCollapse(ptr noundef %33)
  store ptr %34, ptr %8, align 8, !tbaa !8
  %35 = load ptr, ptr %5, align 8, !tbaa !10
  %36 = load ptr, ptr %8, align 8, !tbaa !8
  call void @Bac_AbcUpdateMan(ptr noundef %35, ptr noundef %36)
  store i32 0, ptr %4, align 4
  store i32 1, ptr %12, align 4
  br label %41

37:                                               ; preds = %26, %25
  call void (i32, ptr, ...) @Abc_Print(i32 noundef -2, ptr noundef @.str.79)
  call void (i32, ptr, ...) @Abc_Print(i32 noundef -2, ptr noundef @.str.80)
  %38 = load i32, ptr %11, align 4, !tbaa !28
  %39 = icmp ne i32 %38, 0
  %40 = select i1 %39, ptr @.str.31, ptr @.str.32
  call void (i32, ptr, ...) @Abc_Print(i32 noundef -2, ptr noundef @.str.34, ptr noundef %40)
  call void (i32, ptr, ...) @Abc_Print(i32 noundef -2, ptr noundef @.str.35)
  store i32 1, ptr %4, align 4
  store i32 1, ptr %12, align 4
  br label %41

41:                                               ; preds = %37, %32, %31
  call void @llvm.lifetime.end.p0(i64 4, ptr %11) #10
  call void @llvm.lifetime.end.p0(i64 4, ptr %10) #10
  call void @llvm.lifetime.end.p0(i64 8, ptr %9) #10
  call void @llvm.lifetime.end.p0(i64 8, ptr %8) #10
  %42 = load i32, ptr %4, align 4
  ret i32 %42
}